target datalayout = "e-m:e-p270:32:32-p271:32:32-p272:64:64-i64:64-i128:128-f80:128-n8:16:32:64-S128"
target triple = "x86_64-pc-linux-gnu"

%struct.PyCompilerFlags = type { i32, i32 }
%struct._object = type { %union.anon.41, ptr }
%union.anon.41 = type { i64 }
%struct.anon.42 = type { i32, i32 }

; Function Attrs: alwaysinline nounwind uwtable
define internal i32 @_Py_IsImmortal(ptr noundef %0) #3 {
  %2 = alloca ptr, align 8
  store ptr %0, ptr %2, align 8, !tbaa !9
  %3 = load ptr, ptr %2, align 8, !tbaa !9
  %4 = getelementptr inbounds nuw %struct._object, ptr %3, i32 0, i32 0
  %5 = getelementptr inbounds nuw %struct.anon.42, ptr %4, i32 0, i32 0
  %6 = load i32, ptr %5, align 8, !tbaa !20
  %7 = icmp slt i32 %6, 0
  %8 = zext i1 %7 to i32
  ret i32 %8
}

; Function Attrs: alwaysinline nounwind uwtable
define internal void @Py_DECREF(ptr noundef %0) #3 {
  %2 = alloca ptr, align 8
  store ptr %0, ptr %2, align 8, !tbaa !9
  %3 = load ptr, ptr %2, align 8, !tbaa !9
  %4 = call i32 @_Py_IsImmortal(ptr noundef %3)
  %5 = icmp ne i32 %4, 0
  br i1 %5, label %6, label %7

6:                                                ; preds = %1
  br label %16

7:                                                ; preds = %1
  %8 = load ptr, ptr %2, align 8, !tbaa !9
  %9 = getelementptr inbounds nuw %struct._object, ptr %8, i32 0, i32 0
  %10 = getelementptr inbounds nuw %struct.anon.42, ptr %9, i32 0, i32 0
  %11 = load i32, ptr %10, align 8, !tbaa !20
  %12 = add i32 %11, -1
  store i32 %12, ptr %10, align 8, !tbaa !20
  %13 = icmp eq i32 %12, 0
  br i1 %13, label %14, label %16

14:                                               ; preds = %7
  %15 = load ptr, ptr %2, align 8, !tbaa !9
  call void @_Py_Dealloc(ptr noundef %15)
  br label %16

16:                                               ; preds = %6, %14, %7
  ret void
}

; Function Attrs: nounwind uwtable
define dso_local ptr @Py_CompileStringObject(ptr noundef %0, ptr noundef %1, i32 noundef %2, ptr noundef %3, i32 noundef %4) #0 {
  %6 = alloca ptr, align 8
  %7 = alloca ptr, align 8
  %8 = alloca ptr, align 8
  %9 = alloca i32, align 4
  %10 = alloca ptr, align 8
  %11 = alloca i32, align 4
  %12 = alloca ptr, align 8
  %13 = alloca ptr, align 8
  %14 = alloca ptr, align 8
  %15 = alloca i32, align 4
  %16 = alloca ptr, align 8
  store ptr %0, ptr %7, align 8, !tbaa !21
  store ptr %1, ptr %8, align 8, !tbaa !9
  store i32 %2, ptr %9, align 4, !tbaa !11
  store ptr %3, ptr %10, align 8, !tbaa !13
  store i32 %4, ptr %11, align 4, !tbaa !11
  call void @llvm.lifetime.start.p0(i64 8, ptr %12) #10
  call void @llvm.lifetime.start.p0(i64 8, ptr %13) #10
  call void @llvm.lifetime.start.p0(i64 8, ptr %14) #10
  %17 = call ptr @_PyArena_New()
  store ptr %17, ptr %14, align 8, !tbaa !23
  %18 = load ptr, ptr %14, align 8, !tbaa !23
  %19 = icmp eq ptr %18, null
  br i1 %19, label %20, label %21

20:                                               ; preds = %5
  store ptr null, ptr %6, align 8
  store i32 1, ptr %15, align 4
  br label %72

21:                                               ; preds = %5
  %22 = load ptr, ptr %7, align 8, !tbaa !21
  %23 = load ptr, ptr %8, align 8, !tbaa !9
  %24 = load i32, ptr %9, align 4, !tbaa !11
  %25 = load ptr, ptr %10, align 8, !tbaa !13
  %26 = load ptr, ptr %14, align 8, !tbaa !23
  %27 = call ptr @_PyParser_ASTFromString(ptr noundef %22, ptr noundef %23, i32 noundef %24, ptr noundef %25, ptr noundef %26)
  store ptr %27, ptr %13, align 8, !tbaa !25
  %28 = load ptr, ptr %13, align 8, !tbaa !25
  %29 = icmp eq ptr %28, null
  br i1 %29, label %30, label %32

30:                                               ; preds = %21
  %31 = load ptr, ptr %14, align 8, !tbaa !23
  call void @_PyArena_Free(ptr noundef %31)
  store ptr null, ptr %6, align 8
  store i32 1, ptr %15, align 4
  br label %72

32:                                               ; preds = %21
  %33 = load ptr, ptr %10, align 8, !tbaa !13
  %34 = icmp ne ptr %33, null
  br i1 %34, label %35, label %63

35:                                               ; preds = %32
  %36 = load ptr, ptr %10, align 8, !tbaa !13
  %37 = getelementptr inbounds nuw %struct.PyCompilerFlags, ptr %36, i32 0, i32 0
  %38 = load i32, ptr %37, align 4, !tbaa !40
  %39 = and i32 %38, 1024
  %40 = icmp ne i32 %39, 0
  br i1 %40, label %41, label %63

41:                                               ; preds = %35
  %42 = load ptr, ptr %10, align 8, !tbaa !13
  %43 = getelementptr inbounds nuw %struct.PyCompilerFlags, ptr %42, i32 0, i32 0
  %44 = load i32, ptr %43, align 4, !tbaa !40
  %45 = and i32 %44, 33792
  %46 = icmp eq i32 %45, 33792
  br i1 %46, label %47, label %58

47:                                               ; preds = %41
  %48 = load ptr, ptr %13, align 8, !tbaa !25
  %49 = load ptr, ptr %8, align 8, !tbaa !9
  %50 = load ptr, ptr %10, align 8, !tbaa !13
  %51 = load i32, ptr %11, align 4, !tbaa !11
  %52 = load ptr, ptr %14, align 8, !tbaa !23
  %53 = call i32 @_PyCompile_AstOptimize(ptr noundef %48, ptr noundef %49, ptr noundef %50, i32 noundef %51, ptr noundef %52)
  %54 = icmp slt i32 %53, 0
  br i1 %54, label %55, label %57

55:                                               ; preds = %47
  %56 = load ptr, ptr %14, align 8, !tbaa !23
  call void @_PyArena_Free(ptr noundef %56)
  store ptr null, ptr %6, align 8
  store i32 1, ptr %15, align 4
  br label %72

57:                                               ; preds = %47
  br label %58

58:                                               ; preds = %57, %41
  call void @llvm.lifetime.start.p0(i64 8, ptr %16) #10
  %59 = load ptr, ptr %13, align 8, !tbaa !25
  %60 = call ptr @PyAST_mod2obj(ptr noundef %59)
  store ptr %60, ptr %16, align 8, !tbaa !9
  %61 = load ptr, ptr %14, align 8, !tbaa !23
  call void @_PyArena_Free(ptr noundef %61)
  %62 = load ptr, ptr %16, align 8, !tbaa !9
  store ptr %62, ptr %6, align 8
  store i32 1, ptr %15, align 4
  call void @llvm.lifetime.end.p0(i64 8, ptr %16) #10
  br label %72

63:                                               ; preds = %35, %32
  %64 = load ptr, ptr %13, align 8, !tbaa !25
  %65 = load ptr, ptr %8, align 8, !tbaa !9
  %66 = load ptr, ptr %10, align 8, !tbaa !13
  %67 = load i32, ptr %11, align 4, !tbaa !11
  %68 = load ptr, ptr %14, align 8, !tbaa !23
  %69 = call ptr @_PyAST_Compile(ptr noundef %64, ptr noundef %65, ptr noundef %66, i32 noundef %67, ptr noundef %68)
  store ptr %69, ptr %12, align 8, !tbaa !36
  %70 = load ptr, ptr %14, align 8, !tbaa !23
  call void @_PyArena_Free(ptr noundef %70)
  %71 = load ptr, ptr %12, align 8, !tbaa !36
  store ptr %71, ptr %6, align 8
  store i32 1, ptr %15, align 4
  br label %72

72:                                               ; preds = %63, %58, %55, %30, %20
  call void @llvm.lifetime.end.p0(i64 8, ptr %14) #10
  call void @llvm.lifetime.end.p0(i64 8, ptr %13) #10
  call void @llvm.lifetime.end.p0(i64 8, ptr %12) #10
  %73 = load ptr, ptr %6, align 8
  ret ptr %73
}

; Function Attrs: nounwind uwtable
define dso_local ptr @Py_CompileStringExFlags(ptr noundef %0, ptr noundef %1, i32 noundef %2, ptr noundef %3, i32 noundef %4) #0 {
  %6 = alloca ptr, align 8
  %7 = alloca ptr, align 8
  %8 = alloca ptr, align 8
  %9 = alloca i32, align 4
  %10 = alloca ptr, align 8
  %11 = alloca i32, align 4
  %12 = alloca ptr, align 8
  %13 = alloca ptr, align 8
  %14 = alloca i32, align 4
  store ptr %0, ptr %7, align 8, !tbaa !21
  store ptr %1, ptr %8, align 8, !tbaa !21
  store i32 %2, ptr %9, align 4, !tbaa !11
  store ptr %3, ptr %10, align 8, !tbaa !13
  store i32 %4, ptr %11, align 4, !tbaa !11
  call void @llvm.lifetime.start.p0(i64 8, ptr %12) #10
  call void @llvm.lifetime.start.p0(i64 8, ptr %13) #10
  %15 = load ptr, ptr %8, align 8, !tbaa !21
  %16 = call ptr @PyUnicode_DecodeFSDefault(ptr noundef %15)
  store ptr %16, ptr %12, align 8, !tbaa !9
  %17 = load ptr, ptr %12, align 8, !tbaa !9
  %18 = icmp eq ptr %17, null
  br i1 %18, label %19, label %20

19:                                               ; preds = %5
  store ptr null, ptr %6, align 8
  store i32 1, ptr %14, align 4
  br label %29

20:                                               ; preds = %5
  %21 = load ptr, ptr %7, align 8, !tbaa !21
  %22 = load ptr, ptr %12, align 8, !tbaa !9
  %23 = load i32, ptr %9, align 4, !tbaa !11
  %24 = load ptr, ptr %10, align 8, !tbaa !13
  %25 = load i32, ptr %11, align 4, !tbaa !11
  %26 = call ptr @Py_CompileStringObject(ptr noundef %21, ptr noundef %22, i32 noundef %23, ptr noundef %24, i32 noundef %25)
  store ptr %26, ptr %13, align 8, !tbaa !9
  %27 = load ptr, ptr %12, align 8, !tbaa !9
  call void @Py_DECREF(ptr noundef %27)
  %28 = load ptr, ptr %13, align 8, !tbaa !9
  store ptr %28, ptr %6, align 8
  store i32 1, ptr %14, align 4
  br label %29

29:                                               ; preds = %20, %19
  call void @llvm.lifetime.end.p0(i64 8, ptr %13) #10
  call void @llvm.lifetime.end.p0(i64 8, ptr %12) #10
  %30 = load ptr, ptr %6, align 8
  ret ptr %30
}

; Function Attrs: nounwind uwtable
define dso_local ptr @Py_CompileString(ptr noundef %0, ptr noundef %1, i32 noundef %2) #0 {
  %4 = alloca ptr, align 8
  %5 = alloca ptr, align 8
  %6 = alloca i32, align 4
  store ptr %0, ptr %4, align 8, !tbaa !21
  store ptr %1, ptr %5, align 8, !tbaa !21
  store i32 %2, ptr %6, align 4, !tbaa !11
  %7 = load ptr, ptr %4, align 8, !tbaa !21
  %8 = load ptr, ptr %5, align 8, !tbaa !21
  %9 = load i32, ptr %6, align 4, !tbaa !11
  %10 = call ptr @Py_CompileStringExFlags(ptr noundef %7, ptr noundef %8, i32 noundef %9, ptr noundef null, i32 noundef -1)
  ret ptr %10
}