; Function Attrs: nounwind uwtable
define dso_local ptr @Py_CompileString(ptr noundef %0, ptr noundef %1, i32 noundef %2) local_unnamed_addr #0 {
  %4 = tail call ptr @PyUnicode_DecodeFSDefault(ptr noundef %1) #8
  %5 = icmp eq ptr %4, null
  br i1 %5, label %Py_CompileStringExFlags.exit, label %6

6:                                                ; preds = %3
  %7 = tail call ptr @_PyArena_New() #8
  %8 = icmp eq ptr %7, null
  br i1 %8, label %Py_CompileStringObject.exit, label %9

9:                                                ; preds = %6
  %10 = tail call ptr @_PyParser_ASTFromString(ptr noundef %0, ptr noundef nonnull %4, i32 noundef %2, ptr noundef null, ptr noundef nonnull %7) #8
  %11 = icmp eq ptr %10, null
  br i1 %11, label %.sink.split.i, label %12

12:                                               ; preds = %9
  %13 = tail call ptr @_PyAST_Compile(ptr noundef nonnull %10, ptr noundef nonnull %4, ptr noundef null, i32 noundef -1, ptr noundef nonnull %7) #8
  br label %.sink.split.i

.sink.split.i:                                    ; preds = %12, %9
  %.0.ph.i = phi ptr [ %13, %12 ], [ null, %9 ]
  tail call void @_PyArena_Free(ptr noundef nonnull %7) #8
  br label %Py_CompileStringObject.exit

Py_CompileStringObject.exit:                      ; preds = %6, %.sink.split.i
  %.0.i2 = phi ptr [ null, %6 ], [ %.0.ph.i, %.sink.split.i ]
  %14 = load i32, ptr %4, align 8, !tbaa !9
  %.not.i.i = icmp sgt i32 %14, -1
  br i1 %.not.i.i, label %15, label %Py_CompileStringExFlags.exit

15:                                               ; preds = %Py_CompileStringObject.exit
  %16 = add nsw i32 %14, -1
  store i32 %16, ptr %4, align 8, !tbaa !9
  %17 = icmp eq i32 %16, 0
  br i1 %17, label %18, label %Py_CompileStringExFlags.exit

18:                                               ; preds = %15
  tail call void @_Py_Dealloc(ptr noundef nonnull %4) #8
  br label %Py_CompileStringExFlags.exit

Py_CompileStringExFlags.exit:                     ; preds = %3, %Py_CompileStringObject.exit, %15, %18
  %.0.i = phi ptr [ null, %3 ], [ %.0.i2, %Py_CompileStringObject.exit ], [ %.0.i2, %15 ], [ %.0.i2, %18 ]
  ret ptr %.0.i
}